; Function Attrs: mustprogress nounwind uwtable
define hidden void @_ZN2cv11JpegDecoderD0Ev(ptr noundef nonnull align 8 dereferenceable(384) %0) unnamed_addr #4 align 2 personality ptr @__gxx_personality_v0 {
  %2 = getelementptr inbounds nuw i8, ptr %0, i64 376
  %3 = load ptr, ptr %2, align 8, !tbaa !58
  %.not.i.i = icmp eq ptr %3, null
  br i1 %.not.i.i, label %5, label %4

4:                                                ; preds = %1
  invoke void @jpeg_destroy_decompress(ptr noundef nonnull %3)
          to label %.noexc.i unwind label %10

.noexc.i:                                         ; preds = %4
  tail call void @_ZdlPv(ptr noundef nonnull %3) #25
  store ptr null, ptr %2, align 8, !tbaa !58
  br label %5

5:                                                ; preds = %.noexc.i, %1
  %6 = getelementptr inbounds nuw i8, ptr %0, i64 368
  %7 = load ptr, ptr %6, align 8, !tbaa !61
  %.not4.i.i = icmp eq ptr %7, null
  br i1 %.not4.i.i, label %_ZN2cv11JpegDecoderD2Ev.exit, label %8

8:                                                ; preds = %5
  %9 = tail call i32 @fclose(ptr noundef nonnull %7)
  store ptr null, ptr %6, align 8, !tbaa !61
  br label %_ZN2cv11JpegDecoderD2Ev.exit

10:                                               ; preds = %4
  %11 = landingpad { ptr, i32 }
          catch ptr null
  %12 = extractvalue { ptr, i32 } %11, 0
  tail call void @__clang_call_terminate(ptr %12) #26
  unreachable

_ZN2cv11JpegDecoderD2Ev.exit:                     ; preds = %5, %8
  %13 = getelementptr inbounds nuw i8, ptr %0, i64 12
  store i32 0, ptr %13, align 4, !tbaa !62
  %14 = getelementptr inbounds nuw i8, ptr %0, i64 8
  store i32 0, ptr %14, align 8, !tbaa !63
  %15 = getelementptr inbounds nuw i8, ptr %0, i64 16
  store i32 -1, ptr %15, align 8, !tbaa !64
  tail call void @_ZN2cv16BaseImageDecoderD2Ev(ptr noundef nonnull align 8 dereferenceable(384) %0) #24
  tail call void @_ZdlPv(ptr noundef nonnull %0) #25
  ret void
}